; Function Attrs: nounwind uwtable
define noalias noundef ptr @Pla_ManComputeDistance1(ptr noundef %0) local_unnamed_addr #0 {
  %2 = alloca %struct.timespec, align 8
  %3 = alloca %struct.timespec, align 8
  call void @llvm.lifetime.start.p0(i64 16, ptr nonnull %3) #19
  %4 = call i32 @clock_gettime(i32 noundef 1, ptr noundef nonnull %3) #19
  %5 = icmp slt i32 %4, 0
  br i1 %5, label %Abc_Clock.exit, label %6

6:                                                ; preds = %1
  %7 = load i64, ptr %3, align 8, !tbaa !41
  %.neg7 = mul i64 %7, -1000000
  %8 = getelementptr inbounds nuw i8, ptr %3, i64 8
  %9 = load i64, ptr %8, align 8, !tbaa !44
  %.neg = sdiv i64 %9, -1000
  %.neg8 = add i64 %.neg, %.neg7
  br label %Abc_Clock.exit

Abc_Clock.exit:                                   ; preds = %1, %6
  %.0.i.neg = phi i64 [ %.neg8, %6 ], [ 1, %1 ]
  call void @llvm.lifetime.end.p0(i64 16, ptr nonnull %3) #19
  %10 = call ptr @Pla_ManComputeDistance1Int(ptr noundef %0)
  %11 = getelementptr i8, ptr %10, i64 4
  %.val = load i32, ptr %11, align 4, !tbaa !3
  %12 = sdiv i32 %.val, 4
  %13 = getelementptr i8, ptr %0, i64 44
  %.val4 = load i32, ptr %13, align 4, !tbaa !3
  %14 = call i32 (ptr, ...) @printf(ptr noundef nonnull dereferenceable(1) @.str, i32 noundef %12, i32 noundef %.val4)
  call void @llvm.lifetime.start.p0(i64 16, ptr nonnull %2) #19
  %15 = call i32 @clock_gettime(i32 noundef 1, ptr noundef nonnull %2) #19
  %16 = icmp slt i32 %15, 0
  br i1 %16, label %Abc_Clock.exit6, label %17

17:                                               ; preds = %Abc_Clock.exit
  %18 = load i64, ptr %2, align 8, !tbaa !41
  %19 = mul nsw i64 %18, 1000000
  %20 = getelementptr inbounds nuw i8, ptr %2, i64 8
  %21 = load i64, ptr %20, align 8, !tbaa !44
  %22 = sdiv i64 %21, 1000
  %23 = add nsw i64 %22, %19
  br label %Abc_Clock.exit6

Abc_Clock.exit6:                                  ; preds = %Abc_Clock.exit, %17
  %.0.i5 = phi i64 [ %23, %17 ], [ -1, %Abc_Clock.exit ]
  call void @llvm.lifetime.end.p0(i64 16, ptr nonnull %2) #19
  %24 = add i64 %.0.i5, %.0.i.neg
  call void (i32, ptr, ...) @Abc_Print(i32 poison, ptr noundef nonnull @.str.4, ptr noundef nonnull @.str.1)
  %25 = sitofp i64 %24 to double
  %26 = fdiv double %25, 1.000000e+06
  call void (i32, ptr, ...) @Abc_Print(i32 poison, ptr noundef nonnull @.str.5, double noundef %26)
  ret ptr %10
}